; Function Attrs: mustprogress nofree norecurse nosync nounwind sspstrong willreturn memory(argmem: readwrite) uwtable
define internal i32 @mac_read_clr4(ptr noundef captures(none) %s, i32 noundef %index) #5 {
entry:
  %mac_reg = getelementptr inbounds nuw i8, ptr %s, i64 11376
  %idxprom = sext i32 %index to i64
  %arrayidx = getelementptr [32768 x i32], ptr %mac_reg, i64 0, i64 %idxprom
  %0 = load i32, ptr %arrayidx, align 4
  store i32 0, ptr %arrayidx, align 4
  ret i32 %0
}